; ModuleID = 'source-C-CXX/61/3431.c'
source_filename = "source-C-CXX/61/3431.c"
target datalayout = "e-m:e-p270:32:32-p271:32:32-p272:64:64-i64:64-f80:128-n8:16:32:64-S128"
target triple = "x86_64-pc-linux-gnu"

; Function Attrs: nounwind sspstrong uwtable
define dso_local i32 @main() local_unnamed_addr #0 {
  %1 = alloca [1000 x i8], align 16
  %2 = getelementptr inbounds [1000 x i8], [1000 x i8]* %1, i64 0, i64 0
  call void @llvm.lifetime.start.p0i8(i64 1000, i8* nonnull %2) #5
  %3 = call i32 (i8*, ...) bitcast (i32 (...)* @gets to i32 (i8*, ...)*)(i8* nonnull %2) #5
  %4 = call i64 @strlen(i8* noundef nonnull %2) #6
  %5 = trunc i64 %4 to i32
  %6 = load i8, i8* %2, align 16, !tbaa !5
  %7 = icmp eq i8 %6, 32
  br i1 %7, label %11, label %8

8:                                                ; preds = %0
  %9 = sext i8 %6 to i32
  %10 = call i32 @putchar(i32 %9)
  br label %11

11:                                               ; preds = %8, %0
  %12 = icmp sgt i32 %5, 1
  br i1 %12, label %13, label %33

13:                                               ; preds = %11
  %14 = and i64 %4, 4294967295
  br label %15

15:                                               ; preds = %13, %30
  %16 = phi i64 [ 1, %13 ], [ %31, %30 ]
  %17 = getelementptr inbounds [1000 x i8], [1000 x i8]* %1, i64 0, i64 %16
  %18 = load i8, i8* %17, align 1, !tbaa !5
  %19 = icmp eq i8 %18, 32
  br i1 %19, label %22, label %20

20:                                               ; preds = %15
  %21 = sext i8 %18 to i32
  br label %27

22:                                               ; preds = %15
  %23 = add nsw i64 %16, -1
  %24 = getelementptr inbounds [1000 x i8], [1000 x i8]* %1, i64 0, i64 %23
  %25 = load i8, i8* %24, align 1, !tbaa !5
  %26 = icmp eq i8 %25, 32
  br i1 %26, label %30, label %27

27:                                               ; preds = %22, %20
  %28 = phi i32 [ %21, %20 ], [ 32, %22 ]
  %29 = call i32 @putchar(i32 %28)
  br label %30

30:                                               ; preds = %27, %22
  %31 = add nuw nsw i64 %16, 1
  %32 = icmp eq i64 %31, %14
  br i1 %32, label %33, label %15, !llvm.loop !8

33:                                               ; preds = %30, %11
  call void @llvm.lifetime.end.p0i8(i64 1000, i8* nonnull %2) #5
  ret i32 0
}

; Function Attrs: argmemonly mustprogress nofree nosync nounwind willreturn
declare void @llvm.lifetime.start.p0i8(i64 immarg, i8* nocapture) #1

declare i32 @gets(...) local_unnamed_addr #2

; Function Attrs: argmemonly mustprogress nofree nounwind readonly willreturn
declare i64 @strlen(i8* nocapture) local_unnamed_addr #3

; Function Attrs: argmemonly mustprogress nofree nosync nounwind willreturn
declare void @llvm.lifetime.end.p0i8(i64 immarg, i8* nocapture) #1

; Function Attrs: nofree nounwind
declare noundef i32 @putchar(i32 noundef) local_unnamed_addr #4


!llvm.module.flags = !{!0, !1, !2, !3}
!llvm.ident = !{!4}

!0 = !{i32 1, !"wchar_size", i32 4}
!1 = !{i32 7, !"PIC Level", i32 2}
!2 = !{i32 7, !"PIE Level", i32 2}
!3 = !{i32 7, !"uwtable", i32 1}
!4 = !{!"clang version 13.0.0"}
!5 = !{!6, !6, i64 0}
!6 = !{!"omnipotent char", !7, i64 0}
!7 = !{!"Simple C/C++ TBAA"}
!8 = distinct !{!8, !9}
!9 = !{!"llvm.loop.mustprogress"}
